target datalayout = "e-m:e-p270:32:32-p271:32:32-p272:64:64-i64:64-i128:128-f80:128-n8:16:32:64-S128"
target triple = "x86_64-pc-linux-gnu"

@.str = private unnamed_addr constant [39 x i8] c"\0AThe number of referenced nodes = %d\0A\0A\00", align 1

; Function Attrs: nounwind uwtable
define void @Extra_StopManager(ptr noundef %0) #0 {
  %2 = alloca ptr, align 8
  %3 = alloca i32, align 4
  store ptr %0, ptr %2, align 8, !tbaa !3
  call void @llvm.lifetime.start.p0(i64 4, ptr %3) #10
  %4 = load ptr, ptr %2, align 8, !tbaa !3
  %5 = call i32 @Cudd_CheckZeroRef(ptr noundef %4)
  store i32 %5, ptr %3, align 4, !tbaa !37
  %6 = load i32, ptr %3, align 4, !tbaa !37
  %7 = icmp sgt i32 %6, 10
  br i1 %7, label %8, label %11

8:                                                ; preds = %1
  %9 = load i32, ptr %3, align 4, !tbaa !37
  %10 = call i32 (ptr, ...) @printf(ptr noundef @.str, i32 noundef %9)
  br label %11

11:                                               ; preds = %8, %1
  %12 = load ptr, ptr %2, align 8, !tbaa !3
  call void @Cudd_Quit(ptr noundef %12)
  call void @llvm.lifetime.end.p0(i64 4, ptr %3) #10
  ret void
}