; Function Attrs: nounwind uwtable
define void @Extra_StopManager(ptr noundef %0) local_unnamed_addr #0 {
  %2 = tail call i32 @Cudd_CheckZeroRef(ptr noundef %0) #19
  %3 = icmp sgt i32 %2, 10
  br i1 %3, label %4, label %6

4:                                                ; preds = %1
  %5 = tail call i32 (ptr, ...) @printf(ptr noundef nonnull dereferenceable(1) @.str, i32 noundef %2)
  br label %6

6:                                                ; preds = %4, %1
  tail call void @Cudd_Quit(ptr noundef %0) #19
  ret void
}